target datalayout = "e-m:e-p270:32:32-p271:32:32-p272:64:64-i64:64-i128:128-f80:128-n8:16:32:64-S128"
target triple = "x86_64-pc-linux-gnu"

%struct.RString = type { %struct.RBasic, i64, %union.anon.12 }
%struct.RBasic = type { i64, i64 }
%union.anon.12 = type { %struct.anon.13 }
%struct.anon.13 = type { ptr, %union.anon.14 }
%union.anon.14 = type { i64 }
%struct.RFile = type { %struct.RBasic, ptr }
%struct.rb_io = type { i64, ptr, i32, i32, i32, i32, i64, ptr, %struct.rb_io_internal_buffer, %struct.rb_io_internal_buffer, i64, %struct.rb_io_encoding, ptr, %struct.rb_io_internal_buffer, ptr, i64, i32, i32, i64, i64, i64 }
%struct.rb_io_encoding = type { ptr, ptr, i32, i64 }
%struct.rb_io_internal_buffer = type <{ ptr, i32, i32, i32 }>
%union.__CONST_SOCKADDR_ARG = type { ptr }
%struct.anon.15 = type { [1 x i8] }

@sym_wait_writable = internal global i64 0, align 8
@.str.40 = private unnamed_addr constant [11 x i8] c"connect(2)\00", align 1
@.str.41 = private unnamed_addr constant [23 x i8] c"connect(2) would block\00", align 1

; Function Attrs: inlinehint nounwind sspstrong willreturn memory(read) uwtable
define internal i64 @RB_FL_TEST_RAW(i64 noundef %0, i64 noundef %1) #6 {
  %3 = alloca i64, align 8
  %4 = alloca i64, align 8
  store i64 %0, ptr %3, align 8, !tbaa !11
  store i64 %1, ptr %4, align 8, !tbaa !11
  %5 = load i64, ptr %3, align 8, !tbaa !11
  %6 = inttoptr i64 %5 to ptr
  %7 = getelementptr inbounds nuw %struct.RBasic, ptr %6, i32 0, i32 0
  %8 = load i64, ptr %7, align 8, !tbaa !99
  %9 = load i64, ptr %4, align 8, !tbaa !11
  %10 = and i64 %8, %9
  ret i64 %10
}

; Function Attrs: inlinehint nounwind sspstrong willreturn memory(read) uwtable
define internal zeroext i1 @RB_FL_ANY_RAW(i64 noundef %0, i64 noundef %1) #6 {
  %3 = alloca i64, align 8
  %4 = alloca i64, align 8
  store i64 %0, ptr %3, align 8, !tbaa !11
  store i64 %1, ptr %4, align 8, !tbaa !11
  %5 = load i64, ptr %3, align 8, !tbaa !11
  %6 = load i64, ptr %4, align 8, !tbaa !11
  %7 = call i64 @RB_FL_TEST_RAW(i64 noundef %5, i64 noundef %6) #25
  %8 = icmp ne i64 %7, 0
  ret i1 %8
}

; Function Attrs: inlinehint nounwind sspstrong uwtable
define internal i32 @rb_long2int_inline(i64 noundef %0) #8 {
  %2 = alloca i64, align 8
  %3 = alloca i32, align 4
  store i64 %0, ptr %2, align 8, !tbaa !11
  call void @llvm.lifetime.start.p0(i64 4, ptr %3) #24
  %4 = load i64, ptr %2, align 8, !tbaa !11
  %5 = trunc i64 %4 to i32
  store i32 %5, ptr %3, align 4, !tbaa !13
  %6 = load i32, ptr %3, align 4, !tbaa !13
  %7 = sext i32 %6 to i64
  %8 = load i64, ptr %2, align 8, !tbaa !11
  %9 = icmp ne i64 %7, %8
  br i1 %9, label %10, label %12

10:                                               ; preds = %1
  %11 = load i64, ptr %2, align 8, !tbaa !11
  call void @rb_out_of_int(i64 noundef %11) #30
  unreachable

12:                                               ; preds = %1
  %13 = load i32, ptr %3, align 4, !tbaa !13
  call void @llvm.lifetime.end.p0(i64 4, ptr %3) #24
  ret i32 %13
}

; Function Attrs: inlinehint nounwind sspstrong willreturn memory(read) uwtable
define internal i64 @RSTRING_LEN(i64 noundef %0) #6 {
  %2 = alloca i64, align 8
  store i64 %0, ptr %2, align 8, !tbaa !11
  %3 = load i64, ptr %2, align 8, !tbaa !11
  %4 = inttoptr i64 %3 to ptr
  %5 = getelementptr inbounds nuw %struct.RString, ptr %4, i32 0, i32 1
  %6 = load i64, ptr %5, align 8, !tbaa !18
  ret i64 %6
}

; Function Attrs: inlinehint nounwind sspstrong willreturn memory(read, argmem: readwrite) uwtable
define internal void @rbimpl_rstring_getmem(ptr dead_on_unwind noalias writable sret(%struct.RString) align 8 %0, i64 noundef %1) #14 {
  %3 = alloca i64, align 8
  store i64 %1, ptr %3, align 8, !tbaa !11
  %4 = load i64, ptr %3, align 8, !tbaa !11
  %5 = call zeroext i1 @RB_FL_ANY_RAW(i64 noundef %4, i64 noundef 8192) #25
  br i1 %5, label %6, label %9

6:                                                ; preds = %2
  %7 = load i64, ptr %3, align 8, !tbaa !11
  %8 = inttoptr i64 %7 to ptr
  call void @llvm.memcpy.p0.p0.i64(ptr align 8 %0, ptr align 8 %8, i64 40, i1 false), !tbaa.struct !100
  br label %20

9:                                                ; preds = %2
  %10 = load i64, ptr %3, align 8, !tbaa !11
  %11 = call i64 @RSTRING_LEN(i64 noundef %10) #25
  %12 = getelementptr inbounds nuw %struct.RString, ptr %0, i32 0, i32 1
  store i64 %11, ptr %12, align 8, !tbaa !18
  %13 = load i64, ptr %3, align 8, !tbaa !11
  %14 = inttoptr i64 %13 to ptr
  %15 = getelementptr inbounds nuw %struct.RString, ptr %14, i32 0, i32 2
  %16 = getelementptr inbounds nuw %struct.anon.15, ptr %15, i32 0, i32 0
  %17 = getelementptr inbounds [1 x i8], ptr %16, i64 0, i64 0
  %18 = getelementptr inbounds nuw %struct.RString, ptr %0, i32 0, i32 2
  %19 = getelementptr inbounds nuw %struct.anon.13, ptr %18, i32 0, i32 0
  store ptr %17, ptr %19, align 8, !tbaa !17
  br label %20

20:                                               ; preds = %9, %6
  ret void
}

; Function Attrs: inlinehint nounwind sspstrong willreturn memory(none) uwtable
define internal i64 @RB_INT2FIX(i64 noundef %0) #7 {
  %2 = alloca i64, align 8
  %3 = alloca i64, align 8
  %4 = alloca i64, align 8
  %5 = alloca i64, align 8
  %6 = alloca i64, align 8
  %7 = alloca i64, align 8
  store i64 %0, ptr %2, align 8, !tbaa !11
  call void @llvm.lifetime.start.p0(i64 8, ptr %3) #24
  %8 = load i64, ptr %2, align 8, !tbaa !11
  store i64 %8, ptr %3, align 8, !tbaa !11
  call void @llvm.lifetime.start.p0(i64 8, ptr %4) #24
  %9 = load i64, ptr %3, align 8, !tbaa !11
  %10 = shl i64 %9, 1
  %11 = add i64 %10, 1
  store i64 %11, ptr %4, align 8, !tbaa !11
  call void @llvm.lifetime.start.p0(i64 8, ptr %5) #24
  %12 = load i64, ptr %4, align 8, !tbaa !11
  store i64 %12, ptr %5, align 8, !tbaa !11
  call void @llvm.lifetime.start.p0(i64 8, ptr %6) #24
  %13 = load i64, ptr %5, align 8, !tbaa !11
  store i64 %13, ptr %6, align 8, !tbaa !11
  call void @llvm.lifetime.start.p0(i64 8, ptr %7) #24
  %14 = load i64, ptr %6, align 8, !tbaa !11
  store i64 %14, ptr %7, align 8, !tbaa !11
  %15 = load i64, ptr %7, align 8, !tbaa !11
  call void @llvm.lifetime.end.p0(i64 8, ptr %7) #24
  call void @llvm.lifetime.end.p0(i64 8, ptr %6) #24
  call void @llvm.lifetime.end.p0(i64 8, ptr %5) #24
  call void @llvm.lifetime.end.p0(i64 8, ptr %4) #24
  call void @llvm.lifetime.end.p0(i64 8, ptr %3) #24
  ret i64 %15
}

; Function Attrs: inlinehint nounwind sspstrong uwtable
define internal i32 @RSTRING_LENINT(i64 noundef %0) #8 {
  %2 = alloca i64, align 8
  store i64 %0, ptr %2, align 8, !tbaa !11
  %3 = load i64, ptr %2, align 8, !tbaa !11
  %4 = call i64 @RSTRING_LEN(i64 noundef %3) #25
  %5 = call i32 @rb_long2int_inline(i64 noundef %4)
  ret i32 %5
}

; Function Attrs: inlinehint nounwind sspstrong uwtable
define internal ptr @RSTRING_PTR(i64 noundef %0) #8 {
  %2 = alloca i64, align 8
  %3 = alloca ptr, align 8
  %4 = alloca %struct.RString, align 8
  store i64 %0, ptr %2, align 8, !tbaa !11
  call void @llvm.lifetime.start.p0(i64 8, ptr %3) #24
  %5 = load i64, ptr %2, align 8, !tbaa !11
  call void @rbimpl_rstring_getmem(ptr dead_on_unwind writable sret(%struct.RString) align 8 %4, i64 noundef %5) #27
  %6 = getelementptr inbounds nuw %struct.RString, ptr %4, i32 0, i32 2
  %7 = getelementptr inbounds nuw %struct.anon.13, ptr %6, i32 0, i32 0
  %8 = load ptr, ptr %7, align 8, !tbaa !17
  store ptr %8, ptr %3, align 8, !tbaa !6
  %9 = load ptr, ptr %3, align 8, !tbaa !6
  call void @llvm.lifetime.end.p0(i64 8, ptr %3) #24
  ret ptr %9
}

; Function Attrs: nounwind sspstrong uwtable
define internal i64 @sock_connect_nonblock(i64 noundef %0, i64 noundef %1, i64 noundef %2) #0 {
  %4 = alloca i64, align 8
  %5 = alloca i64, align 8
  %6 = alloca i64, align 8
  %7 = alloca i64, align 8
  %8 = alloca i64, align 8
  %9 = alloca ptr, align 8
  %10 = alloca i32, align 4
  %11 = alloca %union.__CONST_SOCKADDR_ARG, align 8
  %12 = alloca i32, align 4
  %13 = alloca i32, align 4
  store i64 %0, ptr %5, align 8, !tbaa !11
  store i64 %1, ptr %6, align 8, !tbaa !11
  store i64 %2, ptr %7, align 8, !tbaa !11
  call void @llvm.lifetime.start.p0(i64 8, ptr %8) #24
  call void @llvm.lifetime.start.p0(i64 8, ptr %9) #24
  call void @llvm.lifetime.start.p0(i64 4, ptr %10) #24
  %14 = call i64 @rsock_sockaddr_string_value_with_addrinfo(ptr noundef %6, ptr noundef %8)
  %15 = load i64, ptr %6, align 8, !tbaa !11
  %16 = call i64 @rb_str_new_frozen(i64 noundef %15)
  store i64 %16, ptr %6, align 8, !tbaa !11
  %17 = load i64, ptr %5, align 8, !tbaa !11
  %18 = call i64 @rb_io_taint_check(i64 noundef %17)
  %19 = inttoptr i64 %18 to ptr
  %20 = getelementptr inbounds nuw %struct.RFile, ptr %19, i32 0, i32 1
  %21 = load ptr, ptr %20, align 8, !tbaa !35
  store ptr %21, ptr %9, align 8, !tbaa !38
  call void @rb_io_check_closed(ptr noundef %21)
  %22 = load ptr, ptr %9, align 8, !tbaa !38
  call void @rb_io_set_nonblock(ptr noundef %22)
  %23 = load ptr, ptr %9, align 8, !tbaa !38
  %24 = getelementptr inbounds nuw %struct.rb_io, ptr %23, i32 0, i32 2
  %25 = load i32, ptr %24, align 8, !tbaa !39
  %26 = load i64, ptr %6, align 8, !tbaa !11
  %27 = call ptr @RSTRING_PTR(i64 noundef %26)
  store ptr %27, ptr %11, align 8, !tbaa !17
  %28 = load i64, ptr %6, align 8, !tbaa !11
  %29 = call i32 @RSTRING_LENINT(i64 noundef %28)
  %30 = getelementptr inbounds nuw %union.__CONST_SOCKADDR_ARG, ptr %11, i32 0, i32 0
  %31 = load ptr, ptr %30, align 8
  %32 = call i32 @connect(i32 noundef %25, ptr %31, i32 noundef %29)
  store i32 %32, ptr %10, align 4, !tbaa !13
  %33 = load i32, ptr %10, align 4, !tbaa !13
  %34 = icmp slt i32 %33, 0
  br i1 %34, label %35, label %60

35:                                               ; preds = %3
  call void @llvm.lifetime.start.p0(i64 4, ptr %12) #24
  %36 = call ptr @rb_errno_ptr()
  %37 = load i32, ptr %36, align 4, !tbaa !13
  store i32 %37, ptr %12, align 4, !tbaa !13
  %38 = load i32, ptr %12, align 4, !tbaa !13
  %39 = icmp eq i32 %38, 115
  br i1 %39, label %40, label %47

40:                                               ; preds = %35
  %41 = load i64, ptr %7, align 8, !tbaa !11
  %42 = icmp eq i64 %41, 0
  br i1 %42, label %43, label %45

43:                                               ; preds = %40
  %44 = load i64, ptr @sym_wait_writable, align 8, !tbaa !11
  store i64 %44, ptr %4, align 8
  store i32 1, ptr %13, align 4
  br label %59

45:                                               ; preds = %40
  %46 = load i32, ptr %12, align 4, !tbaa !13
  call void @rb_readwrite_syserr_fail(i32 noundef 1, i32 noundef %46, ptr noundef @.str.41) #23
  unreachable

47:                                               ; preds = %35
  %48 = load i32, ptr %12, align 4, !tbaa !13
  %49 = icmp eq i32 %48, 106
  br i1 %49, label %50, label %55

50:                                               ; preds = %47
  %51 = load i64, ptr %7, align 8, !tbaa !11
  %52 = icmp eq i64 %51, 0
  br i1 %52, label %53, label %54

53:                                               ; preds = %50
  store i64 1, ptr %4, align 8
  store i32 1, ptr %13, align 4
  br label %59

54:                                               ; preds = %50
  br label %55

55:                                               ; preds = %54, %47
  %56 = load i32, ptr %12, align 4, !tbaa !13
  %57 = load i64, ptr %6, align 8, !tbaa !11
  %58 = load i64, ptr %8, align 8, !tbaa !11
  call void @rsock_syserr_fail_raddrinfo_or_sockaddr(i32 noundef %56, ptr noundef @.str.40, i64 noundef %57, i64 noundef %58) #23
  unreachable

59:                                               ; preds = %53, %43
  call void @llvm.lifetime.end.p0(i64 4, ptr %12) #24
  br label %64

60:                                               ; preds = %3
  %61 = load i32, ptr %10, align 4, !tbaa !13
  %62 = sext i32 %61 to i64
  %63 = call i64 @RB_INT2FIX(i64 noundef %62) #26
  store i64 %63, ptr %4, align 8
  store i32 1, ptr %13, align 4
  br label %64

64:                                               ; preds = %60, %59
  call void @llvm.lifetime.end.p0(i64 4, ptr %10) #24
  call void @llvm.lifetime.end.p0(i64 8, ptr %9) #24
  call void @llvm.lifetime.end.p0(i64 8, ptr %8) #24
  %65 = load i64, ptr %4, align 8
  ret i64 %65
}