; Function Attrs: nounwind sspstrong uwtable
define internal i64 @sock_connect_nonblock(i64 noundef %0, i64 noundef %1, i64 noundef %2) #0 {
  %4 = alloca i64, align 8
  %5 = alloca i64, align 8
  store i64 %1, ptr %4, align 8, !tbaa !10
  call void @llvm.lifetime.start.p0(i64 8, ptr nonnull %5) #16
  %6 = call i64 @rsock_sockaddr_string_value_with_addrinfo(ptr noundef nonnull %4, ptr noundef nonnull %5) #16
  %7 = load i64, ptr %4, align 8, !tbaa !10
  %8 = call i64 @rb_str_new_frozen(i64 noundef %7) #16
  store i64 %8, ptr %4, align 8, !tbaa !10
  %9 = call i64 @rb_io_taint_check(i64 noundef %0) #16
  %10 = inttoptr i64 %9 to ptr
  %11 = getelementptr inbounds nuw i8, ptr %10, i64 16
  %12 = load ptr, ptr %11, align 8, !tbaa !24
  call void @rb_io_check_closed(ptr noundef %12) #16
  call void @rb_io_set_nonblock(ptr noundef %12) #16
  %13 = getelementptr inbounds nuw i8, ptr %12, i64 16
  %14 = load i32, ptr %13, align 8, !tbaa !27
  %15 = load i64, ptr %4, align 8, !tbaa !10
  %16 = inttoptr i64 %15 to ptr
  %17 = load i64, ptr %16, align 8, !tbaa !12, !noalias !43
  %18 = and i64 %17, 8192
  %.not.i.i = icmp eq i64 %18, 0
  %19 = getelementptr inbounds nuw i8, ptr %16, i64 24
  br i1 %.not.i.i, label %RSTRING_PTR.exit, label %20

20:                                               ; preds = %3
  %.sroa.2.0.copyload.i = load ptr, ptr %19, align 8
  br label %RSTRING_PTR.exit

RSTRING_PTR.exit:                                 ; preds = %3, %20
  %.sroa.2.0.i = phi ptr [ %.sroa.2.0.copyload.i, %20 ], [ %19, %3 ]
  %21 = getelementptr inbounds nuw i8, ptr %16, i64 16
  %22 = load i64, ptr %21, align 8, !tbaa !17
  %23 = add i64 %22, 2147483648
  %.not.i.i15 = icmp ult i64 %23, 4294967296
  br i1 %.not.i.i15, label %RSTRING_LENINT.exit, label %24

24:                                               ; preds = %RSTRING_PTR.exit
  call void @rb_out_of_int(i64 noundef %22) #20
  unreachable

RSTRING_LENINT.exit:                              ; preds = %RSTRING_PTR.exit
  %25 = trunc i64 %22 to i32
  %26 = call i32 @connect(i32 noundef %14, ptr %.sroa.2.0.i, i32 noundef %25) #16
  %27 = icmp slt i32 %26, 0
  br i1 %27, label %28, label %43

28:                                               ; preds = %RSTRING_LENINT.exit
  %29 = call ptr @rb_errno_ptr() #16
  %30 = load i32, ptr %29, align 4, !tbaa !6
  %31 = icmp eq i32 %30, 115
  br i1 %31, label %32, label %37

32:                                               ; preds = %28
  %33 = icmp eq i64 %2, 0
  br i1 %33, label %34, label %36

34:                                               ; preds = %32
  %35 = load i64, ptr @sym_wait_writable, align 8, !tbaa !10
  br label %47

36:                                               ; preds = %32
  call void @rb_readwrite_syserr_fail(i32 noundef 1, i32 noundef 115, ptr noundef nonnull @.str.41) #18
  unreachable

37:                                               ; preds = %28
  %38 = icmp eq i32 %30, 106
  %39 = icmp eq i64 %2, 0
  %or.cond = and i1 %39, %38
  br i1 %or.cond, label %47, label %40

40:                                               ; preds = %37
  %41 = load i64, ptr %4, align 8, !tbaa !10
  %42 = load i64, ptr %5, align 8, !tbaa !10
  call void @rsock_syserr_fail_raddrinfo_or_sockaddr(i32 noundef %30, ptr noundef nonnull @.str.40, i64 noundef %41, i64 noundef %42) #17
  unreachable

43:                                               ; preds = %RSTRING_LENINT.exit
  %44 = shl nuw i32 %26, 1
  %45 = or disjoint i32 %44, 1
  %46 = zext i32 %45 to i64
  br label %47

47:                                               ; preds = %34, %37, %43
  %.1 = phi i64 [ %46, %43 ], [ %35, %34 ], [ 1, %37 ]
  call void @llvm.lifetime.end.p0(i64 8, ptr nonnull %5) #16
  ret i64 %.1
}